target datalayout = "e-m:e-p270:32:32-p271:32:32-p272:64:64-i64:64-i128:128-f80:128-n8:16:32:64-S128"
target triple = "x86_64-pc-linux-gnu"

%struct.Cec_ParCor_t_ = type { i32, i32, i32, i32, i32, i32, i32, i32, i32, i32, i32, i32, i32, i32, i32, i32, i32, i32, i32, i32, ptr, ptr }
%struct.Ssw_Pars_t_ = type { i32, i32, i32, i32, i32, i32, i32, i32, i32, i32, i32, i32, i32, i32, i32, i32, i32, i32, i32, i32, i32, i32, i32, i32, i32, i32, i32, i32, i32, i32, i32, i32, i32, i32, i32, i32, i32, i32, i32, i32, i32, i32, ptr, ptr }

; Function Attrs: nounwind uwtable
define ptr @Cec_ManScorrCorrespondence(ptr noundef %0, ptr noundef %1) #0 {
  %3 = alloca ptr, align 8
  %4 = alloca ptr, align 8
  %5 = alloca ptr, align 8
  %6 = alloca ptr, align 8
  %7 = alloca ptr, align 8
  %8 = alloca %struct.Ssw_Pars_t_, align 8
  %9 = alloca ptr, align 8
  store ptr %0, ptr %3, align 8, !tbaa !10
  store ptr %1, ptr %4, align 8, !tbaa !98
  call void @llvm.lifetime.start.p0(i64 8, ptr %5) #9
  store ptr null, ptr %5, align 8, !tbaa !10
  call void @llvm.lifetime.start.p0(i64 8, ptr %6) #9
  call void @llvm.lifetime.start.p0(i64 8, ptr %7) #9
  call void @llvm.lifetime.start.p0(i64 184, ptr %8) #9
  call void @llvm.lifetime.start.p0(i64 8, ptr %9) #9
  store ptr %8, ptr %9, align 8, !tbaa !107
  %10 = load ptr, ptr %9, align 8, !tbaa !107
  call void @Ssw_ManSetDefaultParams(ptr noundef %10)
  %11 = load ptr, ptr %4, align 8, !tbaa !98
  %12 = getelementptr inbounds nuw %struct.Cec_ParCor_t_, ptr %11, i32 0, i32 4
  %13 = load i32, ptr %12, align 8, !tbaa !100
  %14 = load ptr, ptr %9, align 8, !tbaa !107
  %15 = getelementptr inbounds nuw %struct.Ssw_Pars_t_, ptr %14, i32 0, i32 8
  store i32 %13, ptr %15, align 8, !tbaa !109
  %16 = load ptr, ptr %4, align 8, !tbaa !98
  %17 = getelementptr inbounds nuw %struct.Cec_ParCor_t_, ptr %16, i32 0, i32 2
  %18 = load i32, ptr %17, align 8, !tbaa !115
  %19 = load ptr, ptr %9, align 8, !tbaa !107
  %20 = getelementptr inbounds nuw %struct.Ssw_Pars_t_, ptr %19, i32 0, i32 3
  store i32 %18, ptr %20, align 4, !tbaa !116
  %21 = load ptr, ptr %4, align 8, !tbaa !98
  %22 = getelementptr inbounds nuw %struct.Cec_ParCor_t_, ptr %21, i32 0, i32 10
  %23 = load i32, ptr %22, align 8, !tbaa !117
  %24 = load ptr, ptr %9, align 8, !tbaa !107
  %25 = getelementptr inbounds nuw %struct.Ssw_Pars_t_, ptr %24, i32 0, i32 18
  store i32 %23, ptr %25, align 8, !tbaa !118
  %26 = load ptr, ptr %4, align 8, !tbaa !98
  %27 = getelementptr inbounds nuw %struct.Cec_ParCor_t_, ptr %26, i32 0, i32 19
  %28 = load i32, ptr %27, align 4, !tbaa !103
  %29 = load ptr, ptr %9, align 8, !tbaa !107
  %30 = getelementptr inbounds nuw %struct.Ssw_Pars_t_, ptr %29, i32 0, i32 28
  store i32 %28, ptr %30, align 8, !tbaa !112
  %31 = load ptr, ptr %3, align 8, !tbaa !10
  %32 = call ptr @Gia_ManToAigSimple(ptr noundef %31)
  store ptr %32, ptr %6, align 8, !tbaa !8
  %33 = load ptr, ptr %6, align 8, !tbaa !8
  %34 = load ptr, ptr %9, align 8, !tbaa !107
  %35 = call ptr @Ssw_SignalCorrespondence(ptr noundef %33, ptr noundef %34)
  store ptr %35, ptr %7, align 8, !tbaa !8
  %36 = load ptr, ptr %7, align 8, !tbaa !8
  %37 = call ptr @Gia_ManFromAigSimple(ptr noundef %36)
  store ptr %37, ptr %5, align 8, !tbaa !10
  %38 = load ptr, ptr %6, align 8, !tbaa !8
  %39 = load ptr, ptr %3, align 8, !tbaa !10
  call void @Gia_ManReprFromAigRepr(ptr noundef %38, ptr noundef %39)
  %40 = load ptr, ptr %6, align 8, !tbaa !8
  call void @Aig_ManStop(ptr noundef %40)
  %41 = load ptr, ptr %7, align 8, !tbaa !8
  call void @Aig_ManStop(ptr noundef %41)
  %42 = load ptr, ptr %5, align 8, !tbaa !10
  call void @llvm.lifetime.end.p0(i64 8, ptr %9) #9
  call void @llvm.lifetime.end.p0(i64 184, ptr %8) #9
  call void @llvm.lifetime.end.p0(i64 8, ptr %7) #9
  call void @llvm.lifetime.end.p0(i64 8, ptr %6) #9
  call void @llvm.lifetime.end.p0(i64 8, ptr %5) #9
  ret ptr %42
}