; Function Attrs: nounwind uwtable
define ptr @Cec_ManScorrCorrespondence(ptr noundef %0, ptr noundef readonly captures(none) %1) local_unnamed_addr #2 {
  %3 = alloca %struct.Ssw_Pars_t_, align 8
  call void @llvm.lifetime.start.p0(i64 184, ptr nonnull %3) #11
  call void @Ssw_ManSetDefaultParams(ptr noundef nonnull %3) #11
  %4 = getelementptr inbounds nuw i8, ptr %1, i64 16
  %5 = load i32, ptr %4, align 8, !tbaa !88
  %6 = getelementptr inbounds nuw i8, ptr %3, i64 32
  store i32 %5, ptr %6, align 8, !tbaa !95
  %7 = getelementptr inbounds nuw i8, ptr %1, i64 8
  %8 = load i32, ptr %7, align 8, !tbaa !101
  %9 = getelementptr inbounds nuw i8, ptr %3, i64 12
  store i32 %8, ptr %9, align 4, !tbaa !102
  %10 = getelementptr inbounds nuw i8, ptr %1, i64 40
  %11 = load i32, ptr %10, align 8, !tbaa !103
  %12 = getelementptr inbounds nuw i8, ptr %3, i64 72
  store i32 %11, ptr %12, align 8, !tbaa !104
  %13 = getelementptr inbounds nuw i8, ptr %1, i64 76
  %14 = load i32, ptr %13, align 4, !tbaa !91
  %15 = getelementptr inbounds nuw i8, ptr %3, i64 112
  store i32 %14, ptr %15, align 8, !tbaa !98
  %16 = call ptr @Gia_ManToAigSimple(ptr noundef %0) #11
  %17 = call ptr @Ssw_SignalCorrespondence(ptr noundef %16, ptr noundef nonnull %3) #11
  %18 = call ptr @Gia_ManFromAigSimple(ptr noundef %17) #11
  call void @Gia_ManReprFromAigRepr(ptr noundef %16, ptr noundef %0) #11
  call void @Aig_ManStop(ptr noundef %16) #11
  call void @Aig_ManStop(ptr noundef %17) #11
  call void @llvm.lifetime.end.p0(i64 184, ptr nonnull %3) #11
  ret ptr %18
}